; Function Attrs: nounwind uwtable
define dso_local noundef zeroext i1 @Curl_compareheader(ptr noundef %0, ptr noundef %1, i64 noundef %2, ptr noundef %3, i64 noundef %4) local_unnamed_addr #0 {
  %6 = tail call i32 @curl_strnequal(ptr noundef %0, ptr noundef %1, i64 noundef %2) #11
  %.not = icmp eq i32 %6, 0
  br i1 %.not, label %.loopexit, label %7

7:                                                ; preds = %5
  %8 = getelementptr inbounds nuw i8, ptr %0, i64 %2
  br label %9

9:                                                ; preds = %.critedge2, %7
  %.027 = phi ptr [ %8, %7 ], [ %13, %.critedge2 ]
  %10 = load i8, ptr %.027, align 1, !tbaa !105
  switch i8 %10, label %11 [
    i8 0, label %.critedge
    i8 32, label %.critedge2
    i8 9, label %.critedge2
  ]

11:                                               ; preds = %9
  %12 = add i8 %10, -10
  %or.cond = icmp ult i8 %12, 4
  br i1 %or.cond, label %.critedge2, label %.critedge

.critedge2:                                       ; preds = %11, %9, %9
  %13 = getelementptr inbounds nuw i8, ptr %.027, i64 1
  br label %9, !llvm.loop !143

.critedge:                                        ; preds = %9, %11
  %14 = tail call ptr @strchr(ptr noundef nonnull dereferenceable(1) %.027, i32 noundef 13) #12
  %.not35 = icmp eq ptr %14, null
  br i1 %.not35, label %15, label %18

15:                                               ; preds = %.critedge
  %16 = tail call ptr @strchr(ptr noundef nonnull dereferenceable(1) %.027, i32 noundef 10) #12
  %.not36 = icmp eq ptr %16, null
  br i1 %.not36, label %17, label %18

17:                                               ; preds = %15
  %strlen = tail call i64 @strlen(ptr nonnull dereferenceable(1) %.027)
  %strchr = getelementptr inbounds i8, ptr %.027, i64 %strlen
  br label %18

18:                                               ; preds = %15, %17, %.critedge
  %.0 = phi ptr [ %14, %.critedge ], [ %16, %15 ], [ %strchr, %17 ]
  %19 = ptrtoint ptr %.0 to i64
  %20 = ptrtoint ptr %.027 to i64
  %21 = sub i64 %19, %20
  %.not3739 = icmp ult i64 %21, %4
  br i1 %.not3739, label %.loopexit, label %.lr.ph

.lr.ph:                                           ; preds = %18, %.lr.ph
  %.141 = phi ptr [ %24, %.lr.ph ], [ %.027, %18 ]
  %.02840 = phi i64 [ %23, %.lr.ph ], [ %21, %18 ]
  %22 = tail call i32 @curl_strnequal(ptr noundef nonnull %.141, ptr noundef %3, i64 noundef %4) #11
  %.not38.not = icmp ne i32 %22, 0
  %23 = add i64 %.02840, -1
  %24 = getelementptr inbounds nuw i8, ptr %.141, i64 1
  %.not37 = icmp ult i64 %23, %4
  %or.cond45 = select i1 %.not38.not, i1 true, i1 %.not37
  br i1 %or.cond45, label %.loopexit, label %.lr.ph, !llvm.loop !144

.loopexit:                                        ; preds = %.lr.ph, %18, %5
  %.029 = phi i1 [ false, %5 ], [ false, %18 ], [ %.not38.not, %.lr.ph ]
  ret i1 %.029
}